target datalayout = "e-m:e-p270:32:32-p271:32:32-p272:64:64-i64:64-i128:128-f80:128-n8:16:32:64-S128"
target triple = "x86_64-unknown-linux-gnu"

%struct.stb_easy_font_color = type { [4 x i8] }

; Function Attrs: nounwind uwtable
define i32 @stb_easy_font_draw_segs(float noundef %x, float noundef %y, ptr noundef %segs, i32 noundef %num_segs, i32 noundef %vertical, i32 %c.coerce, ptr noundef %vbuf, i32 noundef %vbuf_size, i32 noundef %offset) #0 {
entry:
  %c = alloca %struct.stb_easy_font_color, align 1
  %x.addr = alloca float, align 4
  %y.addr = alloca float, align 4
  %segs.addr = alloca ptr, align 8
  %num_segs.addr = alloca i32, align 4
  %vertical.addr = alloca i32, align 4
  %vbuf.addr = alloca ptr, align 8
  %vbuf_size.addr = alloca i32, align 4
  %offset.addr = alloca i32, align 4
  %i = alloca i32, align 4
  %j = alloca i32, align 4
  %len = alloca i32, align 4
  %y0 = alloca float, align 4
  %coerce.dive = getelementptr inbounds %struct.stb_easy_font_color, ptr %c, i32 0, i32 0
  store i32 %c.coerce, ptr %coerce.dive, align 1
  store float %x, ptr %x.addr, align 4
  store float %y, ptr %y.addr, align 4
  store ptr %segs, ptr %segs.addr, align 8
  store i32 %num_segs, ptr %num_segs.addr, align 4
  store i32 %vertical, ptr %vertical.addr, align 4
  store ptr %vbuf, ptr %vbuf.addr, align 8
  store i32 %vbuf_size, ptr %vbuf_size.addr, align 4
  store i32 %offset, ptr %offset.addr, align 4
  store i32 0, ptr %i, align 4
  br label %for.cond

for.cond:                                         ; preds = %for.inc54, %entry
  %0 = load i32, ptr %i, align 4
  %1 = load i32, ptr %num_segs.addr, align 4
  %cmp = icmp slt i32 %0, %1
  br i1 %cmp, label %for.body, label %for.end56

for.body:                                         ; preds = %for.cond
  %2 = load ptr, ptr %segs.addr, align 8
  %3 = load i32, ptr %i, align 4
  %idxprom = sext i32 %3 to i64
  %arrayidx = getelementptr inbounds i8, ptr %2, i64 %idxprom
  %4 = load i8, ptr %arrayidx, align 1
  %conv = zext i8 %4 to i32
  %and = and i32 %conv, 7
  store i32 %and, ptr %len, align 4
  %5 = load ptr, ptr %segs.addr, align 8
  %6 = load i32, ptr %i, align 4
  %idxprom1 = sext i32 %6 to i64
  %arrayidx2 = getelementptr inbounds i8, ptr %5, i64 %idxprom1
  %7 = load i8, ptr %arrayidx2, align 1
  %conv3 = zext i8 %7 to i32
  %shr = ashr i32 %conv3, 3
  %and4 = and i32 %shr, 1
  %conv5 = sitofp i32 %and4 to float
  %8 = load float, ptr %x.addr, align 4
  %add = fadd float %8, %conv5
  store float %add, ptr %x.addr, align 4
  %9 = load i32, ptr %len, align 4
  %tobool = icmp ne i32 %9, 0
  br i1 %tobool, label %land.lhs.true, label %if.end

land.lhs.true:                                    ; preds = %for.body
  %10 = load i32, ptr %offset.addr, align 4
  %add6 = add nsw i32 %10, 64
  %11 = load i32, ptr %vbuf_size.addr, align 4
  %cmp7 = icmp sle i32 %add6, %11
  br i1 %cmp7, label %if.then, label %if.end

if.then:                                          ; preds = %land.lhs.true
  %12 = load float, ptr %y.addr, align 4
  %13 = load ptr, ptr %segs.addr, align 8
  %14 = load i32, ptr %i, align 4
  %idxprom9 = sext i32 %14 to i64
  %arrayidx10 = getelementptr inbounds i8, ptr %13, i64 %idxprom9
  %15 = load i8, ptr %arrayidx10, align 1
  %conv11 = zext i8 %15 to i32
  %shr12 = ashr i32 %conv11, 4
  %conv13 = sitofp i32 %shr12 to float
  %add14 = fadd float %12, %conv13
  store float %add14, ptr %y0, align 4
  store i32 0, ptr %j, align 4
  br label %for.cond15

for.cond15:                                       ; preds = %for.inc, %if.then
  %16 = load i32, ptr %j, align 4
  %cmp16 = icmp slt i32 %16, 4
  br i1 %cmp16, label %for.body18, label %for.end

for.body18:                                       ; preds = %for.cond15
  %17 = load float, ptr %x.addr, align 4
  %18 = load i32, ptr %j, align 4
  %cmp19 = icmp eq i32 %18, 1
  br i1 %cmp19, label %cond.true, label %lor.lhs.false

lor.lhs.false:                                    ; preds = %for.body18
  %19 = load i32, ptr %j, align 4
  %cmp21 = icmp eq i32 %19, 2
  br i1 %cmp21, label %cond.true, label %cond.false25

cond.true:                                        ; preds = %lor.lhs.false, %for.body18
  %20 = load i32, ptr %vertical.addr, align 4
  %tobool23 = icmp ne i32 %20, 0
  br i1 %tobool23, label %cond.true24, label %cond.false

cond.true24:                                      ; preds = %cond.true
  br label %cond.end

cond.false:                                       ; preds = %cond.true
  %21 = load i32, ptr %len, align 4
  br label %cond.end

cond.end:                                         ; preds = %cond.false, %cond.true24
  %cond = phi i32 [ 1, %cond.true24 ], [ %21, %cond.false ]
  br label %cond.end26

cond.false25:                                     ; preds = %lor.lhs.false
  br label %cond.end26

cond.end26:                                       ; preds = %cond.false25, %cond.end
  %cond27 = phi i32 [ %cond, %cond.end ], [ 0, %cond.false25 ]
  %conv28 = sitofp i32 %cond27 to float
  %add29 = fadd float %17, %conv28
  %22 = load ptr, ptr %vbuf.addr, align 8
  %23 = load i32, ptr %offset.addr, align 4
  %idx.ext = sext i32 %23 to i64
  %add.ptr = getelementptr inbounds i8, ptr %22, i64 %idx.ext
  %add.ptr30 = getelementptr inbounds i8, ptr %add.ptr, i64 0
  store float %add29, ptr %add.ptr30, align 4
  %24 = load float, ptr %y0, align 4
  %25 = load i32, ptr %j, align 4
  %cmp31 = icmp sge i32 %25, 2
  br i1 %cmp31, label %cond.true33, label %cond.false39

cond.true33:                                      ; preds = %cond.end26
  %26 = load i32, ptr %vertical.addr, align 4
  %tobool34 = icmp ne i32 %26, 0
  br i1 %tobool34, label %cond.true35, label %cond.false36

cond.true35:                                      ; preds = %cond.true33
  %27 = load i32, ptr %len, align 4
  br label %cond.end37

cond.false36:                                     ; preds = %cond.true33
  br label %cond.end37

cond.end37:                                       ; preds = %cond.false36, %cond.true35
  %cond38 = phi i32 [ %27, %cond.true35 ], [ 1, %cond.false36 ]
  br label %cond.end40

cond.false39:                                     ; preds = %cond.end26
  br label %cond.end40

cond.end40:                                       ; preds = %cond.false39, %cond.end37
  %cond41 = phi i32 [ %cond38, %cond.end37 ], [ 0, %cond.false39 ]
  %conv42 = sitofp i32 %cond41 to float
  %add43 = fadd float %24, %conv42
  %28 = load ptr, ptr %vbuf.addr, align 8
  %29 = load i32, ptr %offset.addr, align 4
  %idx.ext44 = sext i32 %29 to i64
  %add.ptr45 = getelementptr inbounds i8, ptr %28, i64 %idx.ext44
  %add.ptr46 = getelementptr inbounds i8, ptr %add.ptr45, i64 4
  store float %add43, ptr %add.ptr46, align 4
  %30 = load ptr, ptr %vbuf.addr, align 8
  %31 = load i32, ptr %offset.addr, align 4
  %idx.ext47 = sext i32 %31 to i64
  %add.ptr48 = getelementptr inbounds i8, ptr %30, i64 %idx.ext47
  %add.ptr49 = getelementptr inbounds i8, ptr %add.ptr48, i64 8
  store float 0.000000e+00, ptr %add.ptr49, align 4
  %32 = load ptr, ptr %vbuf.addr, align 8
  %33 = load i32, ptr %offset.addr, align 4
  %idx.ext50 = sext i32 %33 to i64
  %add.ptr51 = getelementptr inbounds i8, ptr %32, i64 %idx.ext50
  %add.ptr52 = getelementptr inbounds i8, ptr %add.ptr51, i64 12
  call void @llvm.memcpy.p0.p0.i64(ptr align 1 %add.ptr52, ptr align 1 %c, i64 4, i1 false)
  %34 = load i32, ptr %offset.addr, align 4
  %add53 = add nsw i32 %34, 16
  store i32 %add53, ptr %offset.addr, align 4
  br label %for.inc

for.inc:                                          ; preds = %cond.end40
  %35 = load i32, ptr %j, align 4
  %inc = add nsw i32 %35, 1
  store i32 %inc, ptr %j, align 4
  br label %for.cond15, !llvm.loop !4

for.end:                                          ; preds = %for.cond15
  br label %if.end

if.end:                                           ; preds = %for.end, %land.lhs.true, %for.body
  br label %for.inc54

for.inc54:                                        ; preds = %if.end
  %36 = load i32, ptr %i, align 4
  %inc55 = add nsw i32 %36, 1
  store i32 %inc55, ptr %i, align 4
  br label %for.cond, !llvm.loop !6

for.end56:                                        ; preds = %for.cond
  %37 = load i32, ptr %offset.addr, align 4
  ret i32 %37
}