; Function Attrs: nofree norecurse nosync nounwind memory(argmem: readwrite) uwtable
define i32 @stb_easy_font_draw_segs(float noundef %x, float noundef %y, ptr noundef readonly captures(none) %segs, i32 noundef %num_segs, i32 noundef %vertical, i32 %c.coerce, ptr noundef writeonly captures(none) %vbuf, i32 noundef %vbuf_size, i32 noundef %offset) local_unnamed_addr #0 {
entry:
  %cmp27 = icmp sgt i32 %num_segs, 0
  br i1 %cmp27, label %for.body.lr.ph, label %for.end56

for.body.lr.ph:                                   ; preds = %entry
  %tobool23.not = icmp eq i32 %vertical, 0
  %wide.trip.count44 = zext nneg i32 %num_segs to i64
  br i1 %tobool23.not, label %for.body.us, label %for.body

for.body.us:                                      ; preds = %for.body.lr.ph, %for.inc54.us
  %indvars.iv41 = phi i64 [ %indvars.iv.next42, %for.inc54.us ], [ 0, %for.body.lr.ph ]
  %x.addr.030.us = phi float [ %add.us, %for.inc54.us ], [ %x, %for.body.lr.ph ]
  %offset.addr.029.us = phi i32 [ %offset.addr.2.us, %for.inc54.us ], [ %offset, %for.body.lr.ph ]
  %arrayidx.us = getelementptr inbounds nuw i8, ptr %segs, i64 %indvars.iv41
  %0 = load i8, ptr %arrayidx.us, align 1
  %conv.us = zext i8 %0 to i32
  %and.us = and i32 %conv.us, 7
  %shr.us = lshr i32 %conv.us, 3
  %and4.us = and i32 %shr.us, 1
  %conv5.us = uitofp nneg i32 %and4.us to float
  %add.us = fadd float %x.addr.030.us, %conv5.us
  %tobool.not.us = icmp eq i32 %and.us, 0
  %add6.us = add nsw i32 %offset.addr.029.us, 64
  %cmp7.not.us = icmp sgt i32 %add6.us, %vbuf_size
  %or.cond24.us = select i1 %tobool.not.us, i1 true, i1 %cmp7.not.us
  br i1 %or.cond24.us, label %for.inc54.us, label %if.then.us

if.then.us:                                       ; preds = %for.body.us
  %shr12.us = lshr i32 %conv.us, 4
  %conv13.us = uitofp nneg i32 %shr12.us to float
  %add14.us = fadd float %y, %conv13.us
  %1 = sext i32 %offset.addr.029.us to i64
  br label %for.body18.us

for.body18.us:                                    ; preds = %if.then.us, %for.body18.us
  %indvars.iv37 = phi i64 [ %1, %if.then.us ], [ %indvars.iv.next38, %for.body18.us ]
  %j.025.us = phi i32 [ 0, %if.then.us ], [ %inc.us, %for.body18.us ]
  %2 = add nsw i32 %j.025.us, -1
  %or.cond.us = icmp ult i32 %2, 2
  %cond27.us = select i1 %or.cond.us, i32 %and.us, i32 0
  %conv28.us = uitofp nneg i32 %cond27.us to float
  %add29.us = fadd float %add.us, %conv28.us
  %add.ptr.us = getelementptr inbounds i8, ptr %vbuf, i64 %indvars.iv37
  store float %add29.us, ptr %add.ptr.us, align 4
  %cmp31.us = icmp samesign ugt i32 %j.025.us, 1
  %conv42.us = uitofp i1 %cmp31.us to float
  %add43.us = fadd float %add14.us, %conv42.us
  %add.ptr46.us = getelementptr inbounds nuw i8, ptr %add.ptr.us, i64 4
  store float %add43.us, ptr %add.ptr46.us, align 4
  %add.ptr49.us = getelementptr inbounds nuw i8, ptr %add.ptr.us, i64 8
  store float 0.000000e+00, ptr %add.ptr49.us, align 4
  %add.ptr52.us = getelementptr inbounds nuw i8, ptr %add.ptr.us, i64 12
  store i32 %c.coerce, ptr %add.ptr52.us, align 1
  %indvars.iv.next38 = add nsw i64 %indvars.iv37, 16
  %inc.us = add nuw nsw i32 %j.025.us, 1
  %exitcond40.not = icmp eq i32 %inc.us, 4
  br i1 %exitcond40.not, label %for.inc54.us.loopexit, label %for.body18.us, !llvm.loop !4

for.inc54.us.loopexit:                            ; preds = %for.body18.us
  %3 = trunc nsw i64 %indvars.iv.next38 to i32
  br label %for.inc54.us

for.inc54.us:                                     ; preds = %for.inc54.us.loopexit, %for.body.us
  %offset.addr.2.us = phi i32 [ %offset.addr.029.us, %for.body.us ], [ %3, %for.inc54.us.loopexit ]
  %indvars.iv.next42 = add nuw nsw i64 %indvars.iv41, 1
  %exitcond45.not = icmp eq i64 %indvars.iv.next42, %wide.trip.count44
  br i1 %exitcond45.not, label %for.end56, label %for.body.us, !llvm.loop !6

for.body:                                         ; preds = %for.body.lr.ph, %for.inc54
  %indvars.iv33 = phi i64 [ %indvars.iv.next34, %for.inc54 ], [ 0, %for.body.lr.ph ]
  %x.addr.030 = phi float [ %add, %for.inc54 ], [ %x, %for.body.lr.ph ]
  %offset.addr.029 = phi i32 [ %offset.addr.2, %for.inc54 ], [ %offset, %for.body.lr.ph ]
  %arrayidx = getelementptr inbounds nuw i8, ptr %segs, i64 %indvars.iv33
  %4 = load i8, ptr %arrayidx, align 1
  %conv = zext i8 %4 to i32
  %and = and i32 %conv, 7
  %shr = lshr i32 %conv, 3
  %and4 = and i32 %shr, 1
  %conv5 = uitofp nneg i32 %and4 to float
  %add = fadd float %x.addr.030, %conv5
  %tobool.not = icmp eq i32 %and, 0
  %add6 = add nsw i32 %offset.addr.029, 64
  %cmp7.not = icmp sgt i32 %add6, %vbuf_size
  %or.cond24 = select i1 %tobool.not, i1 true, i1 %cmp7.not
  br i1 %or.cond24, label %for.inc54, label %if.then

if.then:                                          ; preds = %for.body
  %shr12 = lshr i32 %conv, 4
  %conv13 = uitofp nneg i32 %shr12 to float
  %add14 = fadd float %y, %conv13
  %5 = sext i32 %offset.addr.029 to i64
  br label %for.body18

for.body18:                                       ; preds = %if.then, %for.body18
  %indvars.iv = phi i64 [ %5, %if.then ], [ %indvars.iv.next, %for.body18 ]
  %j.025 = phi i32 [ 0, %if.then ], [ %inc, %for.body18 ]
  %6 = add nsw i32 %j.025, -1
  %or.cond = icmp ult i32 %6, 2
  %conv28 = uitofp i1 %or.cond to float
  %add29 = fadd float %add, %conv28
  %add.ptr = getelementptr inbounds i8, ptr %vbuf, i64 %indvars.iv
  store float %add29, ptr %add.ptr, align 4
  %cmp31 = icmp samesign ugt i32 %j.025, 1
  %cond41 = select i1 %cmp31, i32 %and, i32 0
  %conv42 = uitofp nneg i32 %cond41 to float
  %add43 = fadd float %add14, %conv42
  %add.ptr46 = getelementptr inbounds nuw i8, ptr %add.ptr, i64 4
  store float %add43, ptr %add.ptr46, align 4
  %add.ptr49 = getelementptr inbounds nuw i8, ptr %add.ptr, i64 8
  store float 0.000000e+00, ptr %add.ptr49, align 4
  %add.ptr52 = getelementptr inbounds nuw i8, ptr %add.ptr, i64 12
  store i32 %c.coerce, ptr %add.ptr52, align 1
  %indvars.iv.next = add nsw i64 %indvars.iv, 16
  %inc = add nuw nsw i32 %j.025, 1
  %exitcond.not = icmp eq i32 %inc, 4
  br i1 %exitcond.not, label %for.inc54.loopexit, label %for.body18, !llvm.loop !4

for.inc54.loopexit:                               ; preds = %for.body18
  %7 = trunc nsw i64 %indvars.iv.next to i32
  br label %for.inc54

for.inc54:                                        ; preds = %for.inc54.loopexit, %for.body
  %offset.addr.2 = phi i32 [ %offset.addr.029, %for.body ], [ %7, %for.inc54.loopexit ]
  %indvars.iv.next34 = add nuw nsw i64 %indvars.iv33, 1
  %exitcond36.not = icmp eq i64 %indvars.iv.next34, %wide.trip.count44
  br i1 %exitcond36.not, label %for.end56, label %for.body, !llvm.loop !6

for.end56:                                        ; preds = %for.inc54, %for.inc54.us, %entry
  %offset.addr.0.lcssa = phi i32 [ %offset, %entry ], [ %offset.addr.2.us, %for.inc54.us ], [ %offset.addr.2, %for.inc54 ]
  ret i32 %offset.addr.0.lcssa
}